; ModuleID = '21/756.c'
source_filename = "21/756.c"
target datalayout = "e-m:e-p270:32:32-p271:32:32-p272:64:64-i64:64-f80:128-n8:16:32:64-S128"
target triple = "x86_64-pc-linux-gnu"

@.str = private unnamed_addr constant [3 x i8] c"%d\00", align 1
@.str.1 = private unnamed_addr constant [3 x i8] c"%f\00", align 1
@.str.2 = private unnamed_addr constant [3 x i8] c"%g\00", align 1
@.str.3 = private unnamed_addr constant [6 x i8] c"%g,%g\00", align 1

; Function Attrs: noinline nounwind uwtable
define dso_local i32 @main() #0 {
  %1 = alloca i32, align 4
  %2 = alloca [300 x float], align 16
  %3 = alloca i32, align 4
  %4 = alloca i32, align 4
  %5 = alloca i32, align 4
  %6 = alloca i32, align 4
  %7 = alloca float, align 4
  %8 = alloca float, align 4
  %9 = alloca float, align 4
  store i32 0, i32* %1, align 4
  store float 0.000000e+00, float* %9, align 4
  %10 = call i32 (i8*, ...) @__isoc99_scanf(i8* getelementptr inbounds ([3 x i8], [3 x i8]* @.str, i64 0, i64 0), i32* %3)
  store i32 0, i32* %4, align 4
  br label %11

11:                                               ; preds = %26, %0
  %12 = load i32, i32* %4, align 4
  %13 = load i32, i32* %3, align 4
  %14 = icmp slt i32 %12, %13
  br i1 %14, label %15, label %29

15:                                               ; preds = %11
  %16 = load i32, i32* %4, align 4
  %17 = sext i32 %16 to i64
  %18 = getelementptr inbounds [300 x float], [300 x float]* %2, i64 0, i64 %17
  %19 = call i32 (i8*, ...) @__isoc99_scanf(i8* getelementptr inbounds ([3 x i8], [3 x i8]* @.str.1, i64 0, i64 0), float* %18)
  %20 = load float, float* %9, align 4
  %21 = load i32, i32* %4, align 4
  %22 = sext i32 %21 to i64
  %23 = getelementptr inbounds [300 x float], [300 x float]* %2, i64 0, i64 %22
  %24 = load float, float* %23, align 4
  %25 = fadd float %20, %24
  store float %25, float* %9, align 4
  br label %26

26:                                               ; preds = %15
  %27 = load i32, i32* %4, align 4
  %28 = add nsw i32 %27, 1
  store i32 %28, i32* %4, align 4
  br label %11

29:                                               ; preds = %11
  store i32 0, i32* %5, align 4
  br label %30

30:                                               ; preds = %77, %29
  %31 = load i32, i32* %5, align 4
  %32 = load i32, i32* %3, align 4
  %33 = sub nsw i32 %32, 1
  %34 = icmp slt i32 %31, %33
  br i1 %34, label %35, label %80

35:                                               ; preds = %30
  store i32 0, i32* %6, align 4
  br label %36

36:                                               ; preds = %73, %35
  %37 = load i32, i32* %6, align 4
  %38 = load i32, i32* %3, align 4
  %39 = sub nsw i32 %38, 1
  %40 = load i32, i32* %5, align 4
  %41 = sub nsw i32 %39, %40
  %42 = icmp slt i32 %37, %41
  br i1 %42, label %43, label %76

43:                                               ; preds = %36
  %44 = load i32, i32* %6, align 4
  %45 = sext i32 %44 to i64
  %46 = getelementptr inbounds [300 x float], [300 x float]* %2, i64 0, i64 %45
  %47 = load float, float* %46, align 4
  %48 = load i32, i32* %6, align 4
  %49 = add nsw i32 %48, 1
  %50 = sext i32 %49 to i64
  %51 = getelementptr inbounds [300 x float], [300 x float]* %2, i64 0, i64 %50
  %52 = load float, float* %51, align 4
  %53 = fcmp ogt float %47, %52
  br i1 %53, label %54, label %72

54:                                               ; preds = %43
  %55 = load i32, i32* %6, align 4
  %56 = sext i32 %55 to i64
  %57 = getelementptr inbounds [300 x float], [300 x float]* %2, i64 0, i64 %56
  %58 = load float, float* %57, align 4
  store float %58, float* %8, align 4
  %59 = load i32, i32* %6, align 4
  %60 = add nsw i32 %59, 1
  %61 = sext i32 %60 to i64
  %62 = getelementptr inbounds [300 x float], [300 x float]* %2, i64 0, i64 %61
  %63 = load float, float* %62, align 4
  %64 = load i32, i32* %6, align 4
  %65 = sext i32 %64 to i64
  %66 = getelementptr inbounds [300 x float], [300 x float]* %2, i64 0, i64 %65
  store float %63, float* %66, align 4
  %67 = load float, float* %8, align 4
  %68 = load i32, i32* %6, align 4
  %69 = add nsw i32 %68, 1
  %70 = sext i32 %69 to i64
  %71 = getelementptr inbounds [300 x float], [300 x float]* %2, i64 0, i64 %70
  store float %67, float* %71, align 4
  br label %72

72:                                               ; preds = %54, %43
  br label %73

73:                                               ; preds = %72
  %74 = load i32, i32* %6, align 4
  %75 = add nsw i32 %74, 1
  store i32 %75, i32* %6, align 4
  br label %36

76:                                               ; preds = %36
  br label %77

77:                                               ; preds = %76
  %78 = load i32, i32* %5, align 4
  %79 = add nsw i32 %78, 1
  store i32 %79, i32* %5, align 4
  br label %30

80:                                               ; preds = %30
  %81 = load float, float* %9, align 4
  %82 = load i32, i32* %3, align 4
  %83 = sitofp i32 %82 to float
  %84 = fdiv float %81, %83
  store float %84, float* %7, align 4
  %85 = load float, float* %7, align 4
  %86 = getelementptr inbounds [300 x float], [300 x float]* %2, i64 0, i64 0
  %87 = load float, float* %86, align 16
  %88 = fsub float %85, %87
  %89 = load i32, i32* %3, align 4
  %90 = sub nsw i32 %89, 1
  %91 = sext i32 %90 to i64
  %92 = getelementptr inbounds [300 x float], [300 x float]* %2, i64 0, i64 %91
  %93 = load float, float* %92, align 4
  %94 = load float, float* %7, align 4
  %95 = fsub float %93, %94
  %96 = fcmp ogt float %88, %95
  br i1 %96, label %97, label %102

97:                                               ; preds = %80
  %98 = getelementptr inbounds [300 x float], [300 x float]* %2, i64 0, i64 0
  %99 = load float, float* %98, align 16
  %100 = fpext float %99 to double
  %101 = call i32 (i8*, ...) @printf(i8* getelementptr inbounds ([3 x i8], [3 x i8]* @.str.2, i64 0, i64 0), double %100)
  br label %102

102:                                              ; preds = %97, %80
  %103 = load float, float* %7, align 4
  %104 = getelementptr inbounds [300 x float], [300 x float]* %2, i64 0, i64 0
  %105 = load float, float* %104, align 16
  %106 = fsub float %103, %105
  %107 = load i32, i32* %3, align 4
  %108 = sub nsw i32 %107, 1
  %109 = sext i32 %108 to i64
  %110 = getelementptr inbounds [300 x float], [300 x float]* %2, i64 0, i64 %109
  %111 = load float, float* %110, align 4
  %112 = load float, float* %7, align 4
  %113 = fsub float %111, %112
  %114 = fcmp oeq float %106, %113
  br i1 %114, label %115, label %126

115:                                              ; preds = %102
  %116 = getelementptr inbounds [300 x float], [300 x float]* %2, i64 0, i64 0
  %117 = load float, float* %116, align 16
  %118 = fpext float %117 to double
  %119 = load i32, i32* %3, align 4
  %120 = sub nsw i32 %119, 1
  %121 = sext i32 %120 to i64
  %122 = getelementptr inbounds [300 x float], [300 x float]* %2, i64 0, i64 %121
  %123 = load float, float* %122, align 4
  %124 = fpext float %123 to double
  %125 = call i32 (i8*, ...) @printf(i8* getelementptr inbounds ([6 x i8], [6 x i8]* @.str.3, i64 0, i64 0), double %118, double %124)
  br label %126

126:                                              ; preds = %115, %102
  %127 = load float, float* %7, align 4
  %128 = getelementptr inbounds [300 x float], [300 x float]* %2, i64 0, i64 0
  %129 = load float, float* %128, align 16
  %130 = fsub float %127, %129
  %131 = load i32, i32* %3, align 4
  %132 = sub nsw i32 %131, 1
  %133 = sext i32 %132 to i64
  %134 = getelementptr inbounds [300 x float], [300 x float]* %2, i64 0, i64 %133
  %135 = load float, float* %134, align 4
  %136 = load float, float* %7, align 4
  %137 = fsub float %135, %136
  %138 = fcmp olt float %130, %137
  br i1 %138, label %139, label %147

139:                                              ; preds = %126
  %140 = load i32, i32* %3, align 4
  %141 = sub nsw i32 %140, 1
  %142 = sext i32 %141 to i64
  %143 = getelementptr inbounds [300 x float], [300 x float]* %2, i64 0, i64 %142
  %144 = load float, float* %143, align 4
  %145 = fpext float %144 to double
  %146 = call i32 (i8*, ...) @printf(i8* getelementptr inbounds ([3 x i8], [3 x i8]* @.str.2, i64 0, i64 0), double %145)
  br label %147

147:                                              ; preds = %139, %126
  ret i32 0
}

declare dso_local i32 @__isoc99_scanf(i8*, ...) #1

declare dso_local i32 @printf(i8*, ...) #1


!llvm.module.flags = !{!0}
!llvm.ident = !{!1}

!0 = !{i32 1, !"wchar_size", i32 4}
!1 = !{!"clang version 10.0.0-4ubuntu1 "}
